; Function Attrs: mustprogress uwtable
define noundef i64 @_ZNK32pxrInternal_v0_24__pxrReserved__8SdfLayer24GetNumTimeSamplesForPathERKNS_7SdfPathE(ptr noundef nonnull readonly align 8 captures(none) dereferenceable(557) %0, ptr noundef nonnull align 4 dereferenceable(8) %1) local_unnamed_addr #3 align 2 {
  %3 = alloca %"class.pxrInternal_v0_24__pxrReserved__::TfCallContext", align 8
  %4 = getelementptr inbounds nuw i8, ptr %0, i64 136
  call void @llvm.lifetime.start.p0(i64 40, ptr nonnull %3)
  %5 = load ptr, ptr %4, align 8
  %.not.i = icmp eq ptr %5, null
  br i1 %.not.i, label %6, label %_ZNK32pxrInternal_v0_24__pxrReserved__8TfRefPtrINS_15SdfAbstractDataEEptEv.exit

6:                                                ; preds = %2
  store ptr @.str.146, ptr %3, align 8
  %7 = getelementptr inbounds nuw i8, ptr %3, i64 8
  store ptr @__func__._ZNK32pxrInternal_v0_24__pxrReserved__8TfRefPtrINS_10Tf_RemnantEEptEv, ptr %7, align 8
  %8 = getelementptr inbounds nuw i8, ptr %3, i64 16
  store i64 936, ptr %8, align 8
  %9 = getelementptr inbounds nuw i8, ptr %3, i64 24
  store ptr @__PRETTY_FUNCTION__._ZNK32pxrInternal_v0_24__pxrReserved__8TfRefPtrINS_15SdfAbstractDataEEptEv, ptr %9, align 8
  %10 = getelementptr inbounds nuw i8, ptr %3, i64 32
  store i8 0, ptr %10, align 8
  call void @_ZN32pxrInternal_v0_24__pxrReserved__40Tf_PostNullSmartPtrDereferenceFatalErrorERKNS_13TfCallContextEPKc(ptr noundef nonnull align 8 dereferenceable(33) %3, ptr noundef nonnull @_ZTSN32pxrInternal_v0_24__pxrReserved__8TfRefPtrINS_15SdfAbstractDataEEE) #31
  unreachable

_ZNK32pxrInternal_v0_24__pxrReserved__8TfRefPtrINS_15SdfAbstractDataEEptEv.exit: ; preds = %2
  call void @llvm.lifetime.end.p0(i64 40, ptr nonnull %3)
  %11 = load ptr, ptr %5, align 8
  %12 = getelementptr inbounds nuw i8, ptr %11, i64 264
  %13 = load ptr, ptr %12, align 8
  %14 = tail call noundef i64 %13(ptr noundef nonnull align 8 dereferenceable(24) %5, ptr noundef nonnull align 4 dereferenceable(8) %1)
  ret i64 %14
}